target datalayout = "e-m:e-p270:32:32-p271:32:32-p272:64:64-i64:64-i128:128-f80:128-n8:16:32:64-S128"
target triple = "x86_64-pc-linux-gnu"

%struct.uv__queue = type { ptr, ptr }
%struct.uv__io_s = type { ptr, %struct.uv__queue, %struct.uv__queue, i32, i32, i32 }
%struct.sockaddr = type { i16, [14 x i8] }
%struct.uv_udp_s = type { ptr, ptr, i32, ptr, %struct.uv__queue, %union.anon.1, ptr, i32, i64, i64, ptr, ptr, %struct.uv__io_s, %struct.uv__queue, %struct.uv__queue }
%union.anon.1 = type { [4 x ptr] }

; Function Attrs: nounwind uwtable
define dso_local i32 @uv_udp_bind(ptr noundef %0, ptr noundef %1, i32 noundef %2) #0 {
  %4 = alloca i32, align 4
  %5 = alloca ptr, align 8
  %6 = alloca ptr, align 8
  %7 = alloca i32, align 4
  %8 = alloca i32, align 4
  %9 = alloca i32, align 4
  store ptr %0, ptr %5, align 8
  store ptr %1, ptr %6, align 8
  store i32 %2, ptr %7, align 4
  call void @llvm.lifetime.start.p0(i64 4, ptr %8) #13
  %10 = load ptr, ptr %5, align 8
  %11 = getelementptr inbounds nuw %struct.uv_udp_s, ptr %10, i32 0, i32 2
  %12 = load i32, ptr %11, align 8
  %13 = icmp ne i32 %12, 15
  br i1 %13, label %14, label %15

14:                                               ; preds = %3
  store i32 -22, ptr %4, align 4
  store i32 1, ptr %9, align 4
  br label %37

15:                                               ; preds = %3
  %16 = load ptr, ptr %6, align 8
  %17 = getelementptr inbounds nuw %struct.sockaddr, ptr %16, i32 0, i32 0
  %18 = load i16, ptr %17, align 2
  %19 = zext i16 %18 to i32
  %20 = icmp eq i32 %19, 2
  br i1 %20, label %21, label %22

21:                                               ; preds = %15
  store i32 16, ptr %8, align 4
  br label %31

22:                                               ; preds = %15
  %23 = load ptr, ptr %6, align 8
  %24 = getelementptr inbounds nuw %struct.sockaddr, ptr %23, i32 0, i32 0
  %25 = load i16, ptr %24, align 2
  %26 = zext i16 %25 to i32
  %27 = icmp eq i32 %26, 10
  br i1 %27, label %28, label %29

28:                                               ; preds = %22
  store i32 28, ptr %8, align 4
  br label %30

29:                                               ; preds = %22
  store i32 -22, ptr %4, align 4
  store i32 1, ptr %9, align 4
  br label %37

30:                                               ; preds = %28
  br label %31

31:                                               ; preds = %30, %21
  %32 = load ptr, ptr %5, align 8
  %33 = load ptr, ptr %6, align 8
  %34 = load i32, ptr %8, align 4
  %35 = load i32, ptr %7, align 4
  %36 = call i32 @uv__udp_bind(ptr noundef %32, ptr noundef %33, i32 noundef %34, i32 noundef %35)
  store i32 %36, ptr %4, align 4
  store i32 1, ptr %9, align 4
  br label %37

37:                                               ; preds = %31, %29, %14
  call void @llvm.lifetime.end.p0(i64 4, ptr %8) #13
  %38 = load i32, ptr %4, align 4
  ret i32 %38
}