; Function Attrs: nounwind uwtable
define dso_local i32 @uv_udp_bind(ptr noundef %0, ptr noundef %1, i32 noundef %2) local_unnamed_addr #0 {
  %4 = getelementptr inbounds nuw i8, ptr %0, i64 16
  %5 = load i32, ptr %4, align 8
  %.not = icmp eq i32 %5, 15
  br i1 %.not, label %6, label %11

6:                                                ; preds = %3
  %7 = load i16, ptr %1, align 2
  switch i16 %7, label %11 [
    i16 2, label %9
    i16 10, label %8
  ]

8:                                                ; preds = %6
  br label %9

9:                                                ; preds = %6, %8
  %.0 = phi i32 [ 28, %8 ], [ 16, %6 ]
  %10 = tail call i32 @uv__udp_bind(ptr noundef nonnull %0, ptr noundef nonnull %1, i32 noundef %.0, i32 noundef %2) #26
  br label %11

11:                                               ; preds = %6, %3, %9
  %.07 = phi i32 [ %10, %9 ], [ -22, %3 ], [ -22, %6 ]
  ret i32 %.07
}